; Function Attrs: nounwind uwtable
define dso_local ptr @get_publication_name(i32 noundef %0, i1 noundef zeroext %1) local_unnamed_addr #0 {
  %3 = zext i32 %0 to i64
  %4 = tail call ptr @SearchSysCache1(i32 noundef 51, i64 noundef %3) #8
  %.not = icmp eq ptr %4, null
  br i1 %.not, label %5, label %9

5:                                                ; preds = %2
  br i1 %1, label %17, label %6

6:                                                ; preds = %5
  %7 = tail call zeroext i1 @errstart_cold(i32 noundef 21, ptr noundef null) #9
  tail call void @llvm.assume(i1 %7)
  %8 = tail call i32 (ptr, ...) @errmsg_internal(ptr noundef nonnull @.str.24, i32 noundef %0) #8
  tail call void @errfinish(ptr noundef nonnull @.str.1, i32 noundef 3683, ptr noundef nonnull @__func__.get_publication_name) #8
  unreachable

9:                                                ; preds = %2
  %10 = getelementptr i8, ptr %4, i64 16
  %.val = load ptr, ptr %10, align 8
  %11 = getelementptr inbounds nuw i8, ptr %.val, i64 22
  %12 = load i8, ptr %11, align 2
  %13 = zext i8 %12 to i64
  %14 = getelementptr inbounds nuw i8, ptr %.val, i64 %13
  %15 = getelementptr inbounds nuw i8, ptr %14, i64 4
  %16 = tail call ptr @pstrdup(ptr noundef nonnull %15) #8
  tail call void @ReleaseSysCache(ptr noundef nonnull %4) #8
  br label %17

17:                                               ; preds = %5, %9
  %.0 = phi ptr [ %16, %9 ], [ null, %5 ]
  ret ptr %.0
}